; Function Attrs: mustprogress uwtable
define noundef i32 @zmq_poller_remove(ptr noundef %0, ptr noundef %1) local_unnamed_addr #1 {
  %.not.i.i = icmp eq ptr %0, null
  br i1 %.not.i.i, label %_ZL30check_poller_registration_argsPvS_.exit.thread, label %3

3:                                                ; preds = %2
  %4 = tail call noundef zeroext i1 @_ZNK3zmq15socket_poller_t9check_tagEv(ptr noundef nonnull align 8 dereferenceable(56) %0)
  br i1 %4, label %_ZL12check_pollerPv.exit.i, label %_ZL30check_poller_registration_argsPvS_.exit.thread

_ZL12check_pollerPv.exit.i:                       ; preds = %3
  %.not.i = icmp eq ptr %1, null
  br i1 %.not.i, label %_ZL30check_poller_registration_argsPvS_.exit.thread, label %5

5:                                                ; preds = %_ZL12check_pollerPv.exit.i
  %6 = tail call noundef zeroext i1 @_ZNK3zmq13socket_base_t9check_tagEv(ptr noundef nonnull align 8 dereferenceable(1825) %1)
  br i1 %6, label %_ZL30check_poller_registration_argsPvS_.exit, label %_ZL30check_poller_registration_argsPvS_.exit.thread

_ZL30check_poller_registration_argsPvS_.exit.thread: ; preds = %2, %3, %_ZL12check_pollerPv.exit.i, %5
  %.sink.i = phi i32 [ 14, %2 ], [ 14, %3 ], [ 88, %5 ], [ 88, %_ZL12check_pollerPv.exit.i ]
  %7 = tail call ptr @__errno_location() #20
  store i32 %.sink.i, ptr %7, align 4, !tbaa !3
  br label %9

_ZL30check_poller_registration_argsPvS_.exit:     ; preds = %5
  %8 = tail call noundef i32 @_ZN3zmq15socket_poller_t6removeEPNS_13socket_base_tE(ptr noundef nonnull align 8 dereferenceable(56) %0, ptr noundef nonnull %1)
  br label %9

9:                                                ; preds = %_ZL30check_poller_registration_argsPvS_.exit.thread, %_ZL30check_poller_registration_argsPvS_.exit
  %.0 = phi i32 [ %8, %_ZL30check_poller_registration_argsPvS_.exit ], [ -1, %_ZL30check_poller_registration_argsPvS_.exit.thread ]
  ret i32 %.0
}